; Function Attrs: nounwind uwtable
define noalias ptr @l_Array_foldrMUnsafe_fold___at_Lean_mkArrowN___spec__1(ptr noundef readonly captures(none) %0, i64 noundef %1, i64 noundef %2, ptr noundef %3, ptr readnone captures(none) %4, ptr noundef %5, ptr noundef %6) local_unnamed_addr #1 {
  %.not50 = icmp eq i64 %1, %2
  br i1 %.not50, label %._crit_edge, label %.lr.ph

.lr.ph:                                           ; preds = %7
  %8 = getelementptr inbounds nuw i8, ptr %0, i64 24
  br label %9

9:                                                ; preds = %.lr.ph, %lean_dec.exit
  %.02753 = phi i64 [ %1, %.lr.ph ], [ %10, %lean_dec.exit ]
  %.02952 = phi ptr [ %3, %.lr.ph ], [ %23, %lean_dec.exit ]
  %.03151 = phi ptr [ %6, %.lr.ph ], [ %33, %lean_dec.exit ]
  %10 = add i64 %.02753, -1
  %11 = getelementptr inbounds nuw [0 x ptr], ptr %8, i64 0, i64 %10
  %12 = load ptr, ptr %11, align 8, !tbaa !9
  %13 = ptrtoint ptr %12 to i64
  %14 = and i64 %13, 1
  %.not.i34 = icmp eq i64 %14, 0
  br i1 %.not.i34, label %15, label %lean_array_uget.exit

15:                                               ; preds = %9
  %.val.i.i = load i32, ptr %12, align 4, !tbaa !4
  %16 = icmp sgt i32 %.val.i.i, 0
  br i1 %16, label %17, label %19, !prof !11

17:                                               ; preds = %15
  %18 = add nuw i32 %.val.i.i, 1
  store i32 %18, ptr %12, align 4, !tbaa !4
  br label %lean_array_uget.exit

19:                                               ; preds = %15
  %.not.i.i = icmp eq i32 %.val.i.i, 0
  br i1 %.not.i.i, label %lean_array_uget.exit, label %20

20:                                               ; preds = %19
  tail call void @lean_inc_ref_cold(ptr noundef nonnull %12) #7
  br label %lean_array_uget.exit

lean_array_uget.exit:                             ; preds = %9, %17, %19, %20
  %21 = tail call ptr @l_Lean_mkArrow(ptr noundef %12, ptr noundef %.02952, ptr poison, ptr noundef %5, ptr noundef %.03151)
  %22 = getelementptr inbounds nuw i8, ptr %21, i64 8
  %23 = load ptr, ptr %22, align 8, !tbaa !9
  %24 = ptrtoint ptr %23 to i64
  %25 = and i64 %24, 1
  %.not47 = icmp eq i64 %25, 0
  br i1 %.not47, label %26, label %lean_inc.exit33

26:                                               ; preds = %lean_array_uget.exit
  %.val.i = load i32, ptr %23, align 4, !tbaa !4
  %27 = icmp sgt i32 %.val.i, 0
  br i1 %27, label %28, label %30, !prof !11

28:                                               ; preds = %26
  %29 = add nuw i32 %.val.i, 1
  store i32 %29, ptr %23, align 4, !tbaa !4
  br label %lean_inc.exit33

30:                                               ; preds = %26
  %.not.i35 = icmp eq i32 %.val.i, 0
  br i1 %.not.i35, label %lean_inc.exit33, label %31

31:                                               ; preds = %30
  tail call void @lean_inc_ref_cold(ptr noundef nonnull %23) #7
  br label %lean_inc.exit33

lean_inc.exit33:                                  ; preds = %31, %30, %28, %lean_array_uget.exit
  %32 = getelementptr inbounds nuw i8, ptr %21, i64 16
  %33 = load ptr, ptr %32, align 8, !tbaa !9
  %34 = ptrtoint ptr %33 to i64
  %35 = and i64 %34, 1
  %.not48 = icmp eq i64 %35, 0
  br i1 %.not48, label %36, label %lean_inc.exit

36:                                               ; preds = %lean_inc.exit33
  %.val.i36 = load i32, ptr %33, align 4, !tbaa !4
  %37 = icmp sgt i32 %.val.i36, 0
  br i1 %37, label %38, label %40, !prof !11

38:                                               ; preds = %36
  %39 = add nuw i32 %.val.i36, 1
  store i32 %39, ptr %33, align 4, !tbaa !4
  br label %lean_inc.exit

40:                                               ; preds = %36
  %.not.i37 = icmp eq i32 %.val.i36, 0
  br i1 %.not.i37, label %lean_inc.exit, label %41

41:                                               ; preds = %40
  tail call void @lean_inc_ref_cold(ptr noundef nonnull %33) #7
  br label %lean_inc.exit

lean_inc.exit:                                    ; preds = %41, %40, %38, %lean_inc.exit33
  %42 = ptrtoint ptr %21 to i64
  %43 = and i64 %42, 1
  %.not49 = icmp eq i64 %43, 0
  br i1 %.not49, label %44, label %lean_dec.exit

44:                                               ; preds = %lean_inc.exit
  %45 = load i32, ptr %21, align 4, !tbaa !4
  %46 = icmp sgt i32 %45, 1
  br i1 %46, label %47, label %49, !prof !11

47:                                               ; preds = %44
  %48 = add nsw i32 %45, -1
  store i32 %48, ptr %21, align 4, !tbaa !4
  br label %lean_dec.exit

49:                                               ; preds = %44
  %.not.i = icmp eq i32 %45, 0
  br i1 %.not.i, label %lean_dec.exit, label %50

50:                                               ; preds = %49
  tail call void @lean_dec_ref_cold(ptr noundef nonnull %21) #7
  br label %lean_dec.exit

._crit_edge:                                      ; preds = %lean_dec.exit, %7
  %.031.lcssa = phi ptr [ %6, %7 ], [ %33, %lean_dec.exit ]
  %.029.lcssa = phi ptr [ %3, %7 ], [ %23, %lean_dec.exit ]
  tail call void @lean_inc_heartbeat() #7
  %51 = tail call noalias ptr @mi_malloc_small(i64 noundef 24) #7
  %52 = icmp eq ptr %51, null
  br i1 %52, label %53, label %54

53:                                               ; preds = %._crit_edge
  tail call void @lean_internal_panic_out_of_memory() #8
  unreachable

lean_dec.exit:                                    ; preds = %lean_inc.exit, %47, %49, %50
  %.not = icmp eq i64 %10, %2
  br i1 %.not, label %._crit_edge, label %9

54:                                               ; preds = %._crit_edge
  %55 = getelementptr inbounds nuw i8, ptr %51, i64 4
  store i32 1, ptr %51, align 4, !tbaa !4
  store i32 131096, ptr %55, align 4
  %56 = getelementptr inbounds nuw i8, ptr %51, i64 8
  store ptr %.029.lcssa, ptr %56, align 8, !tbaa !9
  %57 = getelementptr inbounds nuw i8, ptr %51, i64 16
  store ptr %.031.lcssa, ptr %57, align 8, !tbaa !9
  ret ptr %51
}